; Function Attrs: mustprogress uwtable
define hidden void @_ZNK7datalog18relation_signature6outputER11ast_managerRSo(ptr noundef nonnull readonly align 8 captures(none) dereferenceable(8) %0, ptr noundef nonnull align 8 dereferenceable(976) %1, ptr noundef nonnull align 8 dereferenceable(8) %2) local_unnamed_addr #3 align 2 personality ptr @__gxx_personality_v0 {
  %4 = alloca %struct.mk_pp, align 8
  %5 = load ptr, ptr %0, align 8, !tbaa !32
  %6 = icmp eq ptr %5, null
  br i1 %6, label %_ZNK6vectorIP4sortLb0EjE4sizeEv.exit.thread, label %_ZNK6vectorIP4sortLb0EjE4sizeEv.exit

_ZNK6vectorIP4sortLb0EjE4sizeEv.exit.thread:      ; preds = %3
  %7 = tail call noundef nonnull align 8 dereferenceable(8) ptr @_ZSt16__ostream_insertIcSt11char_traitsIcEERSt13basic_ostreamIT_T0_ES6_PKS3_l(ptr noundef nonnull align 8 dereferenceable(8) %2, ptr noundef nonnull @.str, i64 noundef 1)
  br label %._crit_edge

_ZNK6vectorIP4sortLb0EjE4sizeEv.exit:             ; preds = %3
  %8 = getelementptr inbounds i8, ptr %5, i64 -4
  %9 = load i32, ptr %8, align 4, !tbaa !12
  %10 = tail call noundef nonnull align 8 dereferenceable(8) ptr @_ZSt16__ostream_insertIcSt11char_traitsIcEERSt13basic_ostreamIT_T0_ES6_PKS3_l(ptr noundef nonnull align 8 dereferenceable(8) %2, ptr noundef nonnull @.str, i64 noundef 1)
  %.not15 = icmp eq i32 %9, 0
  br i1 %.not15, label %._crit_edge, label %.lr.ph

.lr.ph:                                           ; preds = %_ZNK6vectorIP4sortLb0EjE4sizeEv.exit
  %11 = getelementptr inbounds nuw i8, ptr %4, i64 16
  %wide.trip.count = zext i32 %9 to i64
  br label %13

._crit_edge:                                      ; preds = %21, %_ZNK6vectorIP4sortLb0EjE4sizeEv.exit.thread, %_ZNK6vectorIP4sortLb0EjE4sizeEv.exit
  %12 = call noundef nonnull align 8 dereferenceable(8) ptr @_ZSt16__ostream_insertIcSt11char_traitsIcEERSt13basic_ostreamIT_T0_ES6_PKS3_l(ptr noundef nonnull align 8 dereferenceable(8) %2, ptr noundef nonnull @.str.2, i64 noundef 1)
  ret void

13:                                               ; preds = %.lr.ph, %21
  %indvars.iv = phi i64 [ 0, %.lr.ph ], [ %indvars.iv.next, %21 ]
  %.not = icmp eq i64 %indvars.iv, 0
  br i1 %.not, label %.split, label %.split13

.split:                                           ; preds = %13
  call void @llvm.lifetime.start.p0(i64 48, ptr nonnull %4) #24
  %14 = load ptr, ptr %0, align 8, !tbaa !32
  br label %18

.split13:                                         ; preds = %13
  %15 = call noundef nonnull align 8 dereferenceable(8) ptr @_ZSt16__ostream_insertIcSt11char_traitsIcEERSt13basic_ostreamIT_T0_ES6_PKS3_l(ptr noundef nonnull align 8 dereferenceable(8) %2, ptr noundef nonnull @.str.1, i64 noundef 1)
  call void @llvm.lifetime.start.p0(i64 48, ptr nonnull %4) #24
  %16 = load ptr, ptr %0, align 8, !tbaa !32
  %17 = getelementptr inbounds nuw ptr, ptr %16, i64 %indvars.iv
  br label %18

18:                                               ; preds = %.split, %.split13
  %phi.call = phi ptr [ %14, %.split ], [ %17, %.split13 ]
  %19 = load ptr, ptr %phi.call, align 8, !tbaa !35
  call void @_ZN11mk_ismt2_ppC2EP3astR11ast_managerjjPKc(ptr noundef nonnull align 8 dereferenceable(48) %4, ptr noundef %19, ptr noundef nonnull align 8 dereferenceable(976) %1, i32 noundef 0, i32 noundef 0, ptr noundef null)
  %20 = invoke noundef nonnull align 8 dereferenceable(8) ptr @_ZlsRSoRK11mk_ismt2_pp(ptr noundef nonnull align 8 dereferenceable(8) %2, ptr noundef nonnull align 8 dereferenceable(48) %4)
          to label %21 unwind label %22

21:                                               ; preds = %18
  call void @_ZN10params_refD1Ev(ptr noundef nonnull align 8 dereferenceable(8) %11) #24
  call void @llvm.lifetime.end.p0(i64 48, ptr nonnull %4) #24
  %indvars.iv.next = add nuw nsw i64 %indvars.iv, 1
  %exitcond.not = icmp eq i64 %indvars.iv.next, %wide.trip.count
  br i1 %exitcond.not, label %._crit_edge, label %13, !llvm.loop !254

22:                                               ; preds = %18
  %23 = landingpad { ptr, i32 }
          cleanup
  call void @_ZN10params_refD1Ev(ptr noundef nonnull align 8 dereferenceable(8) %11) #24
  call void @llvm.lifetime.end.p0(i64 48, ptr nonnull %4) #24
  resume { ptr, i32 } %23
}